(isandbox.filesystem
Directory
p0
(dp1
S'name'
p2
S'trevor'
p3
sS'parent'
p4
(isandbox.filesystem
Directory
p5
(dp6
g2
S'users'
p7
sg4
(isandbox.filesystem
Filesystem
p8
(dp9
g2
S''
p10
sg4
NsS'read'
p11
I01
sS'write'
p12
I00
sS'execute2'
p13
I01
sS'children'
p14
(dp15
S'secretPassage'
p16
(isandbox.filesystem
hiddenDir
p17
(dp18
g2
g16
sg4
g8
sg11
I01
sg12
I00
sg13
I01
sS'key'
p19
S'rootAI'
p20
sS'found'
p21
I00
sg14
(dp22
S'puzzlePeice.txt'
p23
(isandbox.filesystem
File
p24
(dp25
g2
g23
sg4
g17
sg11
I01
sg12
I00
sg13
I00
sS'contents'
p26
S'You will use your other peices in the desktop...'
p27
sbssS'look'
p28
S'a mysterious secret passage with big, secret stuff inside...'
p29
sbsg20
(isandbox.executables
rootAI
p30
(dp31
g2
g20
sg4
g8
sg11
I00
sg12
I00
sg13
I01
sS'temper'
p32
I1
sbsg7
g5
sS'restricted'
p33
(isandbox.filesystem
Directory
p34
(dp35
g2
g33
sg4
g8
sg11
I00
sg12
I00
sg13
I00
sg14
(dp36
sg28
S'how the heck did you get in here???'
p37
sbsS'samplePrinter'
p38
(isandbox.galartheor
samplePrinter
p39
(dp40
S'activated'
p41
I00
sS'thoughtful'
p42
I0
sS'personalityBubble'
p43
S'default'
p44
sS'anger'
p45
I0
sS'intellect'
p46
I450
sS'humor'
p47
I0
sS'paranoia'
p48
I0
sS'comments'
p49
(dp50
sS'pleased'
p51
I0
sg12
I00
sS'memory'
p52
I700
sS'commentsLocation'
p53
I0
sS'excited'
p54
I0
sS'emotionList'
p55
(lp56
I0
aI0
aI0
aI0
aI0
aI0
aI0
asg4
g8
sg11
I00
sS'persons'
p57
(lp58
g44
aS'megalomaniac'
p59
aS'uberDrama'
p60
aS'stupid/borderlineStoned'
p61
aS'genius'
p62
aS'hyperAngry'
p63
aS'spazzy'
p64
aS'passiveAgressive'
p65
aS'theta'
p66
asg13
I01
sS'functionalityLevel'
p67
(lp68
I00
aI00
aI00
aI00
aI00
aI00
aI00
aI00
asS'plotLocation'
p69
I1
sg2
g38
sS'STIPM'
p70
NsS'worried'
p71
I0
sbssg28
S'this is rootDir. Cool command isnt it?'
p72
sbsg11
I01
sg12
I00
sg13
I01
sg14
(dp73
S'ryan'
p74
(isandbox.filesystem
Directory
p75
(dp76
g2
g74
sg4
g5
sg11
I01
sg12
I00
sg13
I01
sg14
(dp77
S'c.txt'
p78
(isandbox.filesystem
File
p79
(dp80
g2
g78
sg4
g75
sg11
I01
sg12
I00
sg13
I00
sg26
S'Here I am!'
p81
sbsS'chest'
p82
(isandbox.executables
chest
p83
(dp84
g2
g82
sg4
g75
sg11
I01
sg12
I00
sS'isProg'
p85
I01
sS'done'
p86
I01
sg13
I01
sS'passing'
p87
Nsg14
(dp88
S'key'
p89
(isandbox.filesystem
key
p90
(dp91
S'used'
p92
I00
sg2
g89
sg4
g83
sg11
I01
sg12
I00
sg13
I01
sS'taken'
p93
I00
sg26
S'A key shaped depression in the chest bottom...'
p94
sbsg23
(isandbox.filesystem
File
p95
(dp96
g2
g23
sg4
g83
sg11
I01
sg12
I00
sg13
I00
sg26
S'Two digits of the code you need are five and seven'
p97
sbssg28
S'You are currently squeezed inside of an antique wooden chest. There is not a lot to see.'
p98
sbssg28
S'blank'
p99
sbsg3
g0
ssg28
S'user folder, two doors, yadda yadda ya...'
p100
sbsg11
I01
sg12
I00
sg13
I01
sg14
(dp101
S'bob'
p102
(isandbox.executables
bob
p103
(dp104
g11
I00
sg12
I00
sg2
g102
sg4
g0
sg13
I01
sbsS'a.txt'
p105
(isandbox.filesystem
File
p106
(dp107
g2
g105
sg4
g0
sg11
I01
sg12
I00
sg13
I00
sg26
S'The quick brown fox...'
p108
sbsS'gateway'
p109
(isandbox.executables
gateway
p110
(dp111
g2
g109
sg4
g0
sg11
I01
sg12
I00
sg85
I01
sg13
I01
sg87
Nsg14
(dp112
g23
(isandbox.filesystem
File
p113
(dp114
g2
g23
sg4
g110
sg11
I01
sg12
I00
sg13
I00
sg26
S'Your going to need to use the decode command on the numbers you found. The other peices show the keyword number, and directory you type the number.'
p115
sbssg28
S'there is actually nothing in here! so far there is no objective in the challenge.'
p116
sbsS'b.txt'
p117
(isandbox.filesystem
File
p118
(dp119
g2
g117
sg4
g0
sg11
I01
sg12
I00
sg13
I00
sg26
S'...jumped over the lazy dog'
p120
sbsS'desktop'
p121
(isandbox.filesystem
Directory
p122
(dp123
g2
g121
sg4
g0
sg11
I01
sg12
I00
sg13
I01
sg14
(dp124
S'file.txt'
p125
(isandbox.filesystem
File
p126
(dp127
g2
g125
sg4
g122
sg11
I01
sg12
I00
sg13
I00
sg26
S'blub blub im a fish'
p128
sbsS'secretPassageTwo'
p129
(isandbox.filesystem
hiddenDir
p130
(dp131
g2
g129
sg4
g122
sg11
I01
sg12
I00
sg13
I01
sg19
S'5279'
p132
sg21
I00
sg14
(dp133
S'IC:level2outOf7'
p134
(isandbox.executables
win
p135
(dp136
g11
I00
sg12
I00
sg2
g134
sg4
g130
sg13
I01
sbssg28
S'A sign reads: Wow! You have totally shattered all of our expectations. Actually, you actually might have. Chances are we have very little faith in you, and probably for good reason.'
p137
sbssg28
S'this is a desktop folder. Theres not a lot in it is there?'
p138
sbssg28
S'welcome to your home directory. This is a sandbox simulation and all that.'
p139
sb.