(isandbox.filesystem
Filesystem
p0
(dp1
S'name'
p2
S''
p3
sS'parent'
p4
NsS'read'
p5
I01
sS'write'
p6
I00
sS'execute2'
p7
I01
sS'children'
p8
(dp9
S'secretPassage'
p10
(isandbox.filesystem
hiddenDir
p11
(dp12
g2
g10
sg4
g0
sg5
I01
sg6
I00
sg7
I01
sS'key'
p13
S'rootAI'
p14
sS'found'
p15
I00
sg8
(dp16
S'puzzlePeice.txt'
p17
(isandbox.filesystem
File
p18
(dp19
g2
g17
sg4
g11
sg5
I01
sg6
I00
sg7
I00
sS'contents'
p20
S'You will use your other peices in the desktop...'
p21
sbssS'look'
p22
S'a mysterious secret passage with big, secret stuff inside...'
p23
sbsg14
(isandbox.executables
rootAI
p24
(dp25
g2
g14
sg4
g0
sg5
I00
sg6
I00
sg7
I01
sS'temper'
p26
I1
sbsS'users'
p27
(isandbox.filesystem
Directory
p28
(dp29
g2
g27
sg4
g0
sg5
I01
sg6
I00
sg7
I01
sg8
(dp30
S'ryan'
p31
(isandbox.filesystem
Directory
p32
(dp33
g2
g31
sg4
g28
sg5
I01
sg6
I00
sg7
I01
sg8
(dp34
S'c.txt'
p35
(isandbox.filesystem
File
p36
(dp37
g2
g35
sg4
g32
sg5
I01
sg6
I00
sg7
I00
sg20
S'Here I am!'
p38
sbsS'chest'
p39
(isandbox.executables
chest
p40
(dp41
g2
g39
sg4
g32
sg5
I01
sg6
I00
sS'isProg'
p42
I01
sS'done'
p43
I00
sg7
I01
sS'passing'
p44
Nsg8
(dp45
S'key'
p46
(isandbox.filesystem
key
p47
(dp48
S'used'
p49
I00
sg2
g46
sg4
g40
sg5
I01
sg6
I00
sg7
I01
sS'taken'
p50
I00
sg20
S'A key shaped depression in the chest bottom...'
p51
sbsg17
(isandbox.filesystem
File
p52
(dp53
g2
g17
sg4
g40
sg5
I01
sg6
I00
sg7
I00
sg20
S'Two digits of the code you need are five and seven'
p54
sbssg22
S'You are currently squeezed inside of an antique wooden chest. There is not a lot to see.'
p55
sbssg22
S'blank'
p56
sbsS'trevor'
p57
(isandbox.filesystem
Directory
p58
(dp59
g2
g57
sg4
g28
sg5
I01
sg6
I00
sg7
I01
sg8
(dp60
S'a.txt'
p61
(isandbox.filesystem
File
p62
(dp63
g2
g61
sg4
g58
sg5
I01
sg6
I00
sg7
I00
sg20
S'The quick brown fox...'
p64
sbsS'gateway'
p65
(isandbox.executables
gateway
p66
(dp67
g2
g65
sg4
g58
sg5
I01
sg6
I00
sg42
I01
sg7
I01
sg44
Nsg8
(dp68
g17
(isandbox.filesystem
File
p69
(dp70
g2
g17
sg4
g66
sg5
I01
sg6
I00
sg7
I00
sg20
S'Your going to need to use the decode command on the numbers you found. The other peices show the keyword number, and directory you type the number.'
p71
sbssg22
S'there is actually nothing in here! so far there is no objective in the challenge.'
p72
sbsS'b.txt'
p73
(isandbox.filesystem
File
p74
(dp75
g2
g73
sg4
g58
sg5
I01
sg6
I00
sg7
I00
sg20
S'...jumped over the lazy dog'
p76
sbsS'desktop'
p77
(isandbox.filesystem
Directory
p78
(dp79
g2
g77
sg4
g58
sg5
I01
sg6
I00
sg7
I01
sg8
(dp80
S'file.txt'
p81
(isandbox.filesystem
File
p82
(dp83
g2
g81
sg4
g78
sg5
I01
sg6
I00
sg7
I00
sg20
S'blub blub im a fish'
p84
sbsS'secretPassageTwo'
p85
(isandbox.filesystem
hiddenDir
p86
(dp87
g2
g85
sg4
g78
sg5
I01
sg6
I00
sg7
I01
sg13
S'5279'
p88
sg15
I00
sg8
(dp89
S'IC:level2outOf7'
p90
(isandbox.executables
win
p91
(dp92
g5
I00
sg6
I00
sg2
g90
sg4
g86
sg7
I01
sbssg22
S'A sign reads: Wow! You have totally shattered all of our expectations. Actually, you actually might have. Chances are we have very little faith in you, and probably for good reason.'
p93
sbsS'bob'
p94
(isandbox.executables
bob
p95
(dp96
g5
I00
sg6
I00
sg2
g94
sg4
g78
sg7
I01
sbssg22
S'this is a desktop folder. Theres not a lot in it is there?'
p97
sbssg22
S'welcome to your home directory. This is a sandbox simulation and all that.'
p98
sbssg22
S'user folder, two doors, yadda yadda ya...'
p99
sbsS'restricted'
p100
(isandbox.filesystem
Directory
p101
(dp102
g2
g100
sg4
g0
sg5
I00
sg6
I00
sg7
I00
sg8
(dp103
sg22
S'how the heck did you get in here???'
p104
sbsS'samplePrinter'
p105
(isandbox.galartheor
samplePrinter
p106
(dp107
S'activated'
p108
I00
sS'thoughtful'
p109
I0
sS'personalityBubble'
p110
S'default'
p111
sS'anger'
p112
I0
sS'intellect'
p113
I450
sS'humor'
p114
I0
sS'paranoia'
p115
I0
sS'comments'
p116
(dp117
sS'pleased'
p118
I0
sg6
I00
sS'memory'
p119
I700
sS'commentsLocation'
p120
I0
sS'excited'
p121
I0
sS'emotionList'
p122
(lp123
I0
aI0
aI0
aI0
aI0
aI0
aI0
asg4
g0
sg5
I00
sS'persons'
p124
(lp125
g111
aS'megalomaniac'
p126
aS'uberDrama'
p127
aS'stupid/borderlineStoned'
p128
aS'genius'
p129
aS'hyperAngry'
p130
aS'spazzy'
p131
aS'passiveAgressive'
p132
aS'theta'
p133
asg7
I01
sS'functionalityLevel'
p134
(lp135
I00
aI00
aI00
aI00
aI00
aI00
aI00
aI00
asS'plotLocation'
p136
I1
sg2
g105
sS'STIPM'
p137
NsS'worried'
p138
I0
sbssg22
S'this is rootDir. Cool command isnt it?'
p139
sb.